target datalayout = "e-m:e-p270:32:32-p271:32:32-p272:64:64-i64:64-i128:128-f80:128-n8:16:32:64-S128"
target triple = "x86_64-pc-linux-gnu"

%"class.open_spiel::dots_and_boxes::Move" = type { i32, i32, i32, i32, i32 }

; Function Attrs: mustprogress nounwind uwtable
define noundef i32 @_ZN10open_spiel14dots_and_boxes4Move12GetCellAboveEv(ptr noundef nonnull align 4 dereferenceable(20) %0) #5 align 2 {
  %2 = alloca i32, align 4
  %3 = alloca ptr, align 8
  store ptr %0, ptr %3, align 8
  %4 = load ptr, ptr %3, align 8
  %5 = getelementptr inbounds nuw %"class.open_spiel::dots_and_boxes::Move", ptr %4, i32 0, i32 0
  %6 = load i32, ptr %5, align 4
  %7 = icmp eq i32 %6, 0
  br i1 %7, label %8, label %9

8:                                                ; preds = %1
  store i32 -1, ptr %2, align 4
  br label %20

9:                                                ; preds = %1
  %10 = getelementptr inbounds nuw %"class.open_spiel::dots_and_boxes::Move", ptr %4, i32 0, i32 0
  %11 = load i32, ptr %10, align 4
  %12 = sub nsw i32 %11, 1
  %13 = getelementptr inbounds nuw %"class.open_spiel::dots_and_boxes::Move", ptr %4, i32 0, i32 4
  %14 = load i32, ptr %13, align 4
  %15 = add nsw i32 %14, 1
  %16 = mul nsw i32 %12, %15
  %17 = getelementptr inbounds nuw %"class.open_spiel::dots_and_boxes::Move", ptr %4, i32 0, i32 1
  %18 = load i32, ptr %17, align 4
  %19 = add nsw i32 %16, %18
  store i32 %19, ptr %2, align 4
  br label %20

20:                                               ; preds = %9, %8
  %21 = load i32, ptr %2, align 4
  ret i32 %21
}