; Function Attrs: mustprogress nofree norecurse nosync nounwind willreturn memory(argmem: read) uwtable
define noundef i32 @_ZN10open_spiel14dots_and_boxes4Move12GetCellAboveEv(ptr nocapture noundef nonnull readonly align 4 dereferenceable(20) %0) local_unnamed_addr #7 align 2 {
  %2 = load i32, ptr %0, align 4
  %3 = icmp eq i32 %2, 0
  br i1 %3, label %13, label %4

4:                                                ; preds = %1
  %5 = add nsw i32 %2, -1
  %6 = getelementptr inbounds nuw i8, ptr %0, i64 16
  %7 = load i32, ptr %6, align 4
  %8 = add nsw i32 %7, 1
  %9 = mul nsw i32 %8, %5
  %10 = getelementptr inbounds nuw i8, ptr %0, i64 4
  %11 = load i32, ptr %10, align 4
  %12 = add nsw i32 %9, %11
  br label %13

13:                                               ; preds = %1, %4
  %.0 = phi i32 [ %12, %4 ], [ -1, %1 ]
  ret i32 %.0
}